target datalayout = "e-m:e-p270:32:32-p271:32:32-p272:64:64-i64:64-i128:128-f80:128-n8:16:32:64-S128"
target triple = "x86_64-pc-linux-gnu"

%"class.clang::Expr" = type { %"class.clang::ValueStmt", %"class.clang::QualType" }
%"class.clang::ValueStmt" = type { %"class.clang::Stmt" }
%"class.clang::Stmt" = type { %union.anon }
%union.anon = type { %"class.clang::Stmt::PseudoObjectExprBitfields" }
%"class.clang::Stmt::PseudoObjectExprBitfields" = type { i64 }
%"class.clang::QualType" = type { %"class.llvm::PointerIntPair" }
%"class.llvm::PointerIntPair" = type { %"struct.llvm::detail::PunnedPointer" }
%"struct.llvm::detail::PunnedPointer" = type { [8 x i8] }
%"class.clang::SourceLocation" = type { i32 }
%"class.llvm::ArrayRef.570" = type { ptr, i64 }
%"class.clang::SubstNonTypeTemplateParmPackExpr" = type { %"class.clang::Expr", ptr, ptr, i32, %"class.clang::SourceLocation" }
%"class.clang::TemplateArgument" = type { %union.anon.593 }
%union.anon.593 = type { %"struct.clang::TemplateArgument::DA" }
%"struct.clang::TemplateArgument::DA" = type { i32, ptr, ptr }
%"struct.clang::TemplateArgument::A" = type { i32, i32, ptr }

; Function Attrs: mustprogress nounwind uwtable
define linkonce_odr hidden noundef i64 @_ZNK4llvm8ArrayRefIN5clang16TemplateArgumentEE4sizeEv(ptr noundef nonnull align 8 dereferenceable(16) %0) #0 comdat align 2 {
  %2 = alloca ptr, align 8
  store ptr %0, ptr %2, align 8
  %3 = load ptr, ptr %2, align 8
  %4 = getelementptr inbounds nuw %"class.llvm::ArrayRef.570", ptr %3, i32 0, i32 1
  %5 = load i64, ptr %4, align 8
  ret i64 %5
}

; Function Attrs: mustprogress nounwind uwtable
define linkonce_odr hidden noundef ptr @_ZNK4llvm8ArrayRefIN5clang16TemplateArgumentEE4dataEv(ptr noundef nonnull align 8 dereferenceable(16) %0) #0 comdat align 2 {
  %2 = alloca ptr, align 8
  store ptr %0, ptr %2, align 8
  %3 = load ptr, ptr %2, align 8
  %4 = getelementptr inbounds nuw %"class.llvm::ArrayRef.570", ptr %3, i32 0, i32 0
  %5 = load ptr, ptr %4, align 8
  ret ptr %5
}

; Function Attrs: mustprogress nounwind uwtable
define linkonce_odr hidden void @_ZN5clang16TemplateArgumentC2EN4llvm8ArrayRefIS0_EE(ptr noundef nonnull align 8 dereferenceable(24) %0, ptr %1, i64 %2) unnamed_addr #0 comdat align 2 {
  %4 = alloca %"class.llvm::ArrayRef.570", align 8
  %5 = alloca ptr, align 8
  %6 = getelementptr inbounds nuw { ptr, i64 }, ptr %4, i32 0, i32 0
  store ptr %1, ptr %6, align 8
  %7 = getelementptr inbounds nuw { ptr, i64 }, ptr %4, i32 0, i32 1
  store i64 %2, ptr %7, align 8
  store ptr %0, ptr %5, align 8
  %8 = load ptr, ptr %5, align 8
  %9 = getelementptr inbounds nuw %"class.clang::TemplateArgument", ptr %8, i32 0, i32 0
  %10 = load i32, ptr %9, align 8
  %11 = and i32 %10, -2147483648
  %12 = or i32 %11, 9
  store i32 %12, ptr %9, align 8
  %13 = getelementptr inbounds nuw %"class.clang::TemplateArgument", ptr %8, i32 0, i32 0
  %14 = load i32, ptr %13, align 8
  %15 = and i32 %14, 2147483647
  %16 = or i32 %15, 0
  store i32 %16, ptr %13, align 8
  %17 = call noundef ptr @_ZNK4llvm8ArrayRefIN5clang16TemplateArgumentEE4dataEv(ptr noundef nonnull align 8 dereferenceable(16) %4)
  %18 = getelementptr inbounds nuw %"class.clang::TemplateArgument", ptr %8, i32 0, i32 0
  %19 = getelementptr inbounds nuw %"struct.clang::TemplateArgument::A", ptr %18, i32 0, i32 2
  store ptr %17, ptr %19, align 8
  %20 = call noundef i64 @_ZNK4llvm8ArrayRefIN5clang16TemplateArgumentEE4sizeEv(ptr noundef nonnull align 8 dereferenceable(16) %4)
  %21 = trunc i64 %20 to i32
  %22 = getelementptr inbounds nuw %"class.clang::TemplateArgument", ptr %8, i32 0, i32 0
  %23 = getelementptr inbounds nuw %"struct.clang::TemplateArgument::A", ptr %22, i32 0, i32 1
  store i32 %21, ptr %23, align 4
  ret void
}

; Function Attrs: mustprogress nounwind uwtable
define linkonce_odr hidden void @_ZN4llvm8ArrayRefIN5clang16TemplateArgumentEEC2EPKS2_m(ptr noundef nonnull align 8 dereferenceable(16) %0, ptr noundef %1, i64 noundef %2) unnamed_addr #0 comdat align 2 {
  %4 = alloca ptr, align 8
  %5 = alloca ptr, align 8
  %6 = alloca i64, align 8
  store ptr %0, ptr %4, align 8
  store ptr %1, ptr %5, align 8
  store i64 %2, ptr %6, align 8
  %7 = load ptr, ptr %4, align 8
  %8 = getelementptr inbounds nuw %"class.llvm::ArrayRef.570", ptr %7, i32 0, i32 0
  %9 = load ptr, ptr %5, align 8
  store ptr %9, ptr %8, align 8
  %10 = getelementptr inbounds nuw %"class.llvm::ArrayRef.570", ptr %7, i32 0, i32 1
  %11 = load i64, ptr %6, align 8
  store i64 %11, ptr %10, align 8
  ret void
}

; Function Attrs: mustprogress nounwind uwtable
define dso_local void @_ZNK5clang32SubstNonTypeTemplateParmPackExpr15getArgumentPackEv(ptr dead_on_unwind noalias writable sret(%"class.clang::TemplateArgument") align 8 %0, ptr noundef nonnull align 8 dereferenceable(40) %1) #0 align 2 {
  %3 = alloca ptr, align 8
  %4 = alloca %"class.llvm::ArrayRef.570", align 8
  store ptr %1, ptr %3, align 8
  %5 = load ptr, ptr %3, align 8
  %6 = getelementptr inbounds nuw %"class.clang::SubstNonTypeTemplateParmPackExpr", ptr %5, i32 0, i32 2
  %7 = load ptr, ptr %6, align 8
  %8 = getelementptr inbounds nuw %"class.clang::SubstNonTypeTemplateParmPackExpr", ptr %5, i32 0, i32 3
  %9 = load i32, ptr %8, align 8
  %10 = and i32 %9, 65535
  %11 = zext i32 %10 to i64
  call void @_ZN4llvm8ArrayRefIN5clang16TemplateArgumentEEC2EPKS2_m(ptr noundef nonnull align 8 dereferenceable(16) %4, ptr noundef %7, i64 noundef %11)
  %12 = getelementptr inbounds nuw { ptr, i64 }, ptr %4, i32 0, i32 0
  %13 = load ptr, ptr %12, align 8
  %14 = getelementptr inbounds nuw { ptr, i64 }, ptr %4, i32 0, i32 1
  %15 = load i64, ptr %14, align 8
  call void @_ZN5clang16TemplateArgumentC2EN4llvm8ArrayRefIS0_EE(ptr noundef nonnull align 8 dereferenceable(24) %0, ptr %13, i64 %15)
  ret void
}