; Function Attrs: mustprogress nofree norecurse nosync nounwind willreturn memory(argmem: readwrite) uwtable
define dso_local void @_ZNK5clang32SubstNonTypeTemplateParmPackExpr15getArgumentPackEv(ptr dead_on_unwind noalias writable writeonly sret(%"class.clang::TemplateArgument") align 8 captures(none) initializes((0, 16)) %0, ptr noundef nonnull readonly align 8 captures(none) dereferenceable(40) %1) local_unnamed_addr #10 align 2 {
  %3 = getelementptr inbounds nuw i8, ptr %1, i64 24
  %4 = load ptr, ptr %3, align 8
  %5 = getelementptr inbounds nuw i8, ptr %1, i64 32
  %6 = load i32, ptr %5, align 8
  %7 = and i32 %6, 65535
  store i32 9, ptr %0, align 8
  %8 = getelementptr inbounds nuw i8, ptr %0, i64 8
  store ptr %4, ptr %8, align 8
  %9 = getelementptr inbounds nuw i8, ptr %0, i64 4
  store i32 %7, ptr %9, align 4
  ret void
}